target datalayout = "e-m:e-p270:32:32-p271:32:32-p272:64:64-i64:64-i128:128-f80:128-n8:16:32:64-S128"
target triple = "x86_64-pc-linux-gnu"

%struct.pm_string_t = type { ptr, i64, i32 }
%struct.pm_options = type { ptr, ptr, %struct.pm_string_t, i32, %struct.pm_string_t, i64, ptr, i32, i8, i8, i8, i8, i8, i8 }
%struct.pm_parser = type { i32, i32, i32, i32, i32, i32, i32, %struct.anon.5, ptr, ptr, %struct.pm_token_t, %struct.pm_token_t, ptr, ptr, %struct.pm_list_t, %struct.pm_list_t, %struct.pm_location_t, %struct.pm_list_t, %struct.pm_list_t, ptr, ptr, ptr, ptr, ptr, ptr, ptr, %struct.pm_string_t, %struct.pm_constant_pool_t, %struct.pm_newline_list_t, i16, %struct.pm_string_t, i32, ptr, ptr, i32, i8, i8, i8, i8, i8, i8, i8, i8, i8, i8, i8, i8, i8 }
%struct.anon.5 = type { ptr, [4 x %struct.pm_lex_mode], i64 }
%struct.pm_lex_mode = type { i32, %union.anon.6, ptr }
%union.anon.6 = type { %struct.anon.10 }
%struct.anon.10 = type { %struct.pm_heredoc_lex_mode_t, ptr, ptr, i8 }
%struct.pm_heredoc_lex_mode_t = type { ptr, i64, i32, i32 }
%struct.pm_token_t = type { i32, ptr, ptr }
%struct.pm_location_t = type { ptr, ptr }
%struct.pm_list_t = type { i64, ptr, ptr }
%struct.pm_constant_pool_t = type { ptr, ptr, i32, i32 }
%struct.pm_newline_list_t = type { ptr, i64, i64, ptr }

; Function Attrs: nounwind sspstrong uwtable
define internal i64 @parse_input_success_p(ptr noundef %0, ptr noundef %1) #0 {
  %3 = alloca ptr, align 8
  %4 = alloca ptr, align 8
  %5 = alloca %struct.pm_parser, align 8
  %6 = alloca ptr, align 8
  %7 = alloca i64, align 8
  store ptr %0, ptr %3, align 8, !tbaa !49
  store ptr %1, ptr %4, align 8, !tbaa !50
  call void @llvm.lifetime.start.p0(i64 712, ptr %5) #24
  %8 = load ptr, ptr %3, align 8, !tbaa !49
  %9 = call ptr @pm_string_source(ptr noundef %8)
  %10 = load ptr, ptr %3, align 8, !tbaa !49
  %11 = call i64 @pm_string_length(ptr noundef %10)
  %12 = load ptr, ptr %4, align 8, !tbaa !50
  call void @pm_parser_init(ptr noundef %5, ptr noundef %9, i64 noundef %11, ptr noundef %12)
  call void @llvm.lifetime.start.p0(i64 8, ptr %6) #24
  %13 = call ptr @pm_parse(ptr noundef %5)
  store ptr %13, ptr %6, align 8, !tbaa !20
  %14 = load ptr, ptr %6, align 8, !tbaa !20
  call void @pm_node_destroy(ptr noundef %5, ptr noundef %14)
  call void @llvm.lifetime.start.p0(i64 8, ptr %7) #24
  %15 = getelementptr inbounds nuw %struct.pm_parser, ptr %5, i32 0, i32 18
  %16 = getelementptr inbounds nuw %struct.pm_list_t, ptr %15, i32 0, i32 0
  %17 = load i64, ptr %16, align 8, !tbaa !110
  %18 = icmp eq i64 %17, 0
  %19 = select i1 %18, i64 20, i64 0
  store i64 %19, ptr %7, align 8, !tbaa !7
  call void @pm_parser_free(ptr noundef %5)
  %20 = load i64, ptr %7, align 8, !tbaa !7
  call void @llvm.lifetime.end.p0(i64 8, ptr %7) #24
  call void @llvm.lifetime.end.p0(i64 8, ptr %6) #24
  call void @llvm.lifetime.end.p0(i64 712, ptr %5) #24
  ret i64 %20
}

; Function Attrs: nounwind sspstrong uwtable
define internal i64 @parse_file_success_p(i32 noundef %0, ptr noundef %1, i64 noundef %2) #0 {
  %4 = alloca i32, align 4
  %5 = alloca ptr, align 8
  %6 = alloca i64, align 8
  %7 = alloca %struct.pm_string_t, align 8
  %8 = alloca %struct.pm_options, align 8
  %9 = alloca i64, align 8
  %10 = alloca i64, align 8
  store i32 %0, ptr %4, align 4, !tbaa !18
  store ptr %1, ptr %5, align 8, !tbaa !14
  store i64 %2, ptr %6, align 8, !tbaa !7
  call void @llvm.lifetime.start.p0(i64 24, ptr %7) #24
  call void @llvm.lifetime.start.p0(i64 104, ptr %8) #24
  call void @llvm.memset.p0.i64(ptr align 8 %8, i8 0, i64 104, i1 false)
  call void @llvm.lifetime.start.p0(i64 8, ptr %9) #24
  %11 = load i32, ptr %4, align 4, !tbaa !18
  %12 = load ptr, ptr %5, align 8, !tbaa !14
  call void @file_options(i32 noundef %11, ptr noundef %12, ptr noundef %7, ptr noundef %8, ptr noundef %9)
  call void @llvm.lifetime.start.p0(i64 8, ptr %10) #24
  %13 = call i64 @parse_input_success_p(ptr noundef %7, ptr noundef %8)
  store i64 %13, ptr %10, align 8, !tbaa !7
  call void @pm_string_free(ptr noundef %7)
  call void @pm_options_free(ptr noundef %8)
  %14 = load i64, ptr %10, align 8, !tbaa !7
  call void @llvm.lifetime.end.p0(i64 8, ptr %10) #24
  call void @llvm.lifetime.end.p0(i64 8, ptr %9) #24
  call void @llvm.lifetime.end.p0(i64 104, ptr %8) #24
  call void @llvm.lifetime.end.p0(i64 24, ptr %7) #24
  ret i64 %14
}