; Function Attrs: nounwind sspstrong uwtable
define internal range(i64 0, 21) i64 @parse_file_success_p(i32 noundef %0, ptr noundef readonly captures(none) %1, i64 %2) #0 {
  %4 = alloca %struct.pm_parser, align 8
  %5 = alloca %struct.pm_string_t, align 8
  %6 = alloca %struct.pm_options, align 8
  %7 = alloca i64, align 8
  call void @llvm.lifetime.start.p0(i64 24, ptr nonnull %5) #9
  call void @llvm.lifetime.start.p0(i64 104, ptr nonnull %6) #9
  call void @llvm.memset.p0.i64(ptr noundef nonnull align 8 dereferenceable(104) %6, i8 0, i64 104, i1 false)
  call void @llvm.lifetime.start.p0(i64 8, ptr nonnull %7) #9
  call fastcc void @file_options(i32 noundef %0, ptr noundef %1, ptr noundef %5, ptr noundef %6, ptr noundef %7)
  call void @llvm.lifetime.start.p0(i64 712, ptr nonnull %4) #9
  %8 = call ptr @pm_string_source(ptr noundef nonnull %5) #9
  %9 = call i64 @pm_string_length(ptr noundef nonnull %5) #9
  call void @pm_parser_init(ptr noundef nonnull %4, ptr noundef %8, i64 noundef %9, ptr noundef nonnull %6) #9
  %10 = call ptr @pm_parse(ptr noundef nonnull %4) #9
  call void @pm_node_destroy(ptr noundef nonnull %4, ptr noundef %10) #9
  %11 = getelementptr inbounds nuw i8, ptr %4, i64 472
  %12 = load i64, ptr %11, align 8, !tbaa !46
  %13 = icmp eq i64 %12, 0
  %14 = select i1 %13, i64 20, i64 0
  call void @pm_parser_free(ptr noundef nonnull %4) #9
  call void @llvm.lifetime.end.p0(i64 712, ptr nonnull %4) #9
  call void @pm_string_free(ptr noundef nonnull %5) #9
  call void @pm_options_free(ptr noundef nonnull %6) #9
  call void @llvm.lifetime.end.p0(i64 8, ptr nonnull %7) #9
  call void @llvm.lifetime.end.p0(i64 104, ptr nonnull %6) #9
  call void @llvm.lifetime.end.p0(i64 24, ptr nonnull %5) #9
  ret i64 %14
}